target datalayout = "e-m:e-p270:32:32-p271:32:32-p272:64:64-i64:64-i128:128-f80:128-n8:16:32:64-S128"
target triple = "x86_64-pc-linux-gnu"

%struct.Map_NodeStruct_t_ = type { ptr, ptr, i32, i32, i32, i32, [3 x i32], [3 x float], float, ptr, ptr, ptr, ptr, [2 x %struct.Map_TimeStruct_t_], [2 x %struct.Map_TimeStruct_t_], [2 x ptr], ptr, ptr, ptr }
%struct.Map_TimeStruct_t_ = type { float, float, float }
%struct.Map_ManStruct_t_ = type { ptr, i32, ptr, i32, ptr, i32, i32, ptr, ptr, ptr, ptr, ptr, ptr, ptr, ptr, i32, i32, i32, i32, float, float, float, float, i32, i32, float, i32, i32, i32, i32, ptr, [6 x [2 x i32]], [10 x [32 x i32]], [32 x i32], [32 x i32], ptr, ptr, ptr, ptr, ptr, ptr, i32, i32, i32, i32, i32, i32, i64, i64, i64, i64, i64, i64, i64, i64, i64, i64, i64 }
%struct.Map_CutStruct_t_ = type { ptr, ptr, ptr, [6 x ptr], i32, i8, i8, i8, i8, [2 x %struct.Map_MatchStruct_t_] }
%struct.Map_MatchStruct_t_ = type { ptr, i32, i32, ptr, %struct.Map_TimeStruct_t_, float }
%struct.Map_SuperStruct_t_ = type { i32, i32, [4 x i8], i32, [6 x ptr], ptr, [2 x i32], [6 x %struct.Map_TimeStruct_t_], [6 x %struct.Map_TimeStruct_t_], %struct.Map_TimeStruct_t_, float, ptr, ptr }
%struct.Map_SuperLibStruct_t_ = type { ptr, ptr, i32, i32, i32, i32, i32, ptr, ptr, ptr, [6 x [2 x i32]], [2 x i32], ptr, %struct.Map_TimeStruct_t_, float, float, ptr, ptr, ptr, ptr }

; Function Attrs: nounwind uwtable
define float @Map_CutRefDeref(ptr noundef %0, i32 noundef %1, i32 noundef %2, i32 noundef %3) #0 {
  %5 = alloca float, align 4
  %6 = alloca ptr, align 8
  %7 = alloca i32, align 4
  %8 = alloca i32, align 4
  %9 = alloca i32, align 4
  %10 = alloca ptr, align 8
  %11 = alloca ptr, align 8
  %12 = alloca float, align 4
  %13 = alloca i32, align 4
  %14 = alloca i32, align 4
  %15 = alloca i32, align 4
  store ptr %0, ptr %6, align 8, !tbaa !10
  store i32 %1, ptr %7, align 4, !tbaa !8
  store i32 %2, ptr %8, align 4, !tbaa !8
  store i32 %3, ptr %9, align 4, !tbaa !8
  call void @llvm.lifetime.start.p0(i64 8, ptr %10) #4
  call void @llvm.lifetime.start.p0(i64 8, ptr %11) #4
  call void @llvm.lifetime.start.p0(i64 4, ptr %12) #4
  call void @llvm.lifetime.start.p0(i64 4, ptr %13) #4
  call void @llvm.lifetime.start.p0(i64 4, ptr %14) #4
  %16 = load ptr, ptr %6, align 8, !tbaa !10
  %17 = getelementptr inbounds nuw %struct.Map_CutStruct_t_, ptr %16, i32 0, i32 5
  %18 = load i8, ptr %17, align 4, !tbaa !48
  %19 = sext i8 %18 to i32
  %20 = icmp eq i32 %19, 1
  br i1 %20, label %21, label %22

21:                                               ; preds = %4
  store float 0.000000e+00, ptr %5, align 4
  store i32 1, ptr %15, align 4
  br label %236

22:                                               ; preds = %4
  %23 = load ptr, ptr %6, align 8, !tbaa !10
  %24 = load i32, ptr %7, align 4, !tbaa !8
  %25 = call float @Map_CutGetRootArea(ptr noundef %23, i32 noundef %24)
  store float %25, ptr %12, align 4, !tbaa !12
  %26 = load i32, ptr %9, align 4, !tbaa !8
  %27 = icmp ne i32 %26, 0
  br i1 %27, label %28, label %52

28:                                               ; preds = %22
  %29 = load i32, ptr %8, align 4, !tbaa !8
  %30 = icmp ne i32 %29, 0
  br i1 %30, label %31, label %41

31:                                               ; preds = %28
  %32 = load ptr, ptr %6, align 8, !tbaa !10
  %33 = getelementptr inbounds nuw %struct.Map_CutStruct_t_, ptr %32, i32 0, i32 9
  %34 = load i32, ptr %7, align 4, !tbaa !8
  %35 = sext i32 %34 to i64
  %36 = getelementptr inbounds [2 x %struct.Map_MatchStruct_t_], ptr %33, i64 0, i64 %35
  %37 = getelementptr inbounds nuw %struct.Map_MatchStruct_t_, ptr %36, i32 0, i32 3
  %38 = load ptr, ptr %37, align 8, !tbaa !39
  %39 = getelementptr inbounds nuw %struct.Map_SuperStruct_t_, ptr %38, i32 0, i32 5
  %40 = load ptr, ptr %39, align 8, !tbaa !52
  call void @Mio_GateIncProfile2(ptr noundef %40)
  br label %51

41:                                               ; preds = %28
  %42 = load ptr, ptr %6, align 8, !tbaa !10
  %43 = getelementptr inbounds nuw %struct.Map_CutStruct_t_, ptr %42, i32 0, i32 9
  %44 = load i32, ptr %7, align 4, !tbaa !8
  %45 = sext i32 %44 to i64
  %46 = getelementptr inbounds [2 x %struct.Map_MatchStruct_t_], ptr %43, i64 0, i64 %45
  %47 = getelementptr inbounds nuw %struct.Map_MatchStruct_t_, ptr %46, i32 0, i32 3
  %48 = load ptr, ptr %47, align 8, !tbaa !39
  %49 = getelementptr inbounds nuw %struct.Map_SuperStruct_t_, ptr %48, i32 0, i32 5
  %50 = load ptr, ptr %49, align 8, !tbaa !52
  call void @Mio_GateDecProfile2(ptr noundef %50)
  br label %51

51:                                               ; preds = %41, %31
  br label %52

52:                                               ; preds = %51, %22
  store i32 0, ptr %13, align 4, !tbaa !8
  br label %53

53:                                               ; preds = %231, %52
  %54 = load i32, ptr %13, align 4, !tbaa !8
  %55 = load ptr, ptr %6, align 8, !tbaa !10
  %56 = getelementptr inbounds nuw %struct.Map_CutStruct_t_, ptr %55, i32 0, i32 5
  %57 = load i8, ptr %56, align 4, !tbaa !48
  %58 = sext i8 %57 to i32
  %59 = icmp slt i32 %54, %58
  br i1 %59, label %60, label %234

60:                                               ; preds = %53
  %61 = load ptr, ptr %6, align 8, !tbaa !10
  %62 = getelementptr inbounds nuw %struct.Map_CutStruct_t_, ptr %61, i32 0, i32 3
  %63 = load i32, ptr %13, align 4, !tbaa !8
  %64 = sext i32 %63 to i64
  %65 = getelementptr inbounds [6 x ptr], ptr %62, i64 0, i64 %64
  %66 = load ptr, ptr %65, align 8, !tbaa !3
  store ptr %66, ptr %10, align 8, !tbaa !3
  %67 = load ptr, ptr %6, align 8, !tbaa !10
  %68 = load i32, ptr %7, align 4, !tbaa !8
  %69 = load i32, ptr %13, align 4, !tbaa !8
  %70 = call i32 @Map_CutGetLeafPhase(ptr noundef %67, i32 noundef %68, i32 noundef %69)
  store i32 %70, ptr %14, align 4, !tbaa !8
  %71 = load i32, ptr %8, align 4, !tbaa !8
  %72 = icmp ne i32 %71, 0
  br i1 %72, label %73, label %138

73:                                               ; preds = %60
  %74 = load ptr, ptr %10, align 8, !tbaa !3
  %75 = getelementptr inbounds nuw %struct.Map_NodeStruct_t_, ptr %74, i32 0, i32 15
  %76 = getelementptr inbounds [2 x ptr], ptr %75, i64 0, i64 0
  %77 = load ptr, ptr %76, align 8, !tbaa !10
  %78 = icmp ne ptr %77, null
  br i1 %78, label %79, label %101

79:                                               ; preds = %73
  %80 = load ptr, ptr %10, align 8, !tbaa !3
  %81 = getelementptr inbounds nuw %struct.Map_NodeStruct_t_, ptr %80, i32 0, i32 15
  %82 = getelementptr inbounds [2 x ptr], ptr %81, i64 0, i64 1
  %83 = load ptr, ptr %82, align 8, !tbaa !10
  %84 = icmp ne ptr %83, null
  br i1 %84, label %85, label %101

85:                                               ; preds = %79
  %86 = load ptr, ptr %10, align 8, !tbaa !3
  %87 = getelementptr inbounds nuw %struct.Map_NodeStruct_t_, ptr %86, i32 0, i32 6
  %88 = getelementptr inbounds [3 x i32], ptr %87, i64 0, i64 2
  %89 = load i32, ptr %88, align 8, !tbaa !8
  %90 = add nsw i32 %89, 1
  store i32 %90, ptr %88, align 8, !tbaa !8
  %91 = load ptr, ptr %10, align 8, !tbaa !3
  %92 = getelementptr inbounds nuw %struct.Map_NodeStruct_t_, ptr %91, i32 0, i32 6
  %93 = load i32, ptr %14, align 4, !tbaa !8
  %94 = sext i32 %93 to i64
  %95 = getelementptr inbounds [3 x i32], ptr %92, i64 0, i64 %94
  %96 = load i32, ptr %95, align 4, !tbaa !8
  %97 = add nsw i32 %96, 1
  store i32 %97, ptr %95, align 4, !tbaa !8
  %98 = icmp sgt i32 %96, 0
  br i1 %98, label %99, label %100

99:                                               ; preds = %85
  br label %231

100:                                              ; preds = %85
  br label %137

101:                                              ; preds = %79, %73
  %102 = load ptr, ptr %10, align 8, !tbaa !3
  %103 = getelementptr inbounds nuw %struct.Map_NodeStruct_t_, ptr %102, i32 0, i32 6
  %104 = load i32, ptr %14, align 4, !tbaa !8
  %105 = sext i32 %104 to i64
  %106 = getelementptr inbounds [3 x i32], ptr %103, i64 0, i64 %105
  %107 = load i32, ptr %106, align 4, !tbaa !8
  %108 = add nsw i32 %107, 1
  store i32 %108, ptr %106, align 4, !tbaa !8
  %109 = icmp eq i32 %107, 0
  br i1 %109, label %110, label %128

110:                                              ; preds = %101
  %111 = load ptr, ptr %10, align 8, !tbaa !3
  %112 = getelementptr inbounds nuw %struct.Map_NodeStruct_t_, ptr %111, i32 0, i32 15
  %113 = load i32, ptr %14, align 4, !tbaa !8
  %114 = sext i32 %113 to i64
  %115 = getelementptr inbounds [2 x ptr], ptr %112, i64 0, i64 %114
  %116 = load ptr, ptr %115, align 8, !tbaa !10
  %117 = icmp eq ptr %116, null
  br i1 %117, label %118, label %128

118:                                              ; preds = %110
  %119 = load ptr, ptr %10, align 8, !tbaa !3
  %120 = getelementptr inbounds nuw %struct.Map_NodeStruct_t_, ptr %119, i32 0, i32 0
  %121 = load ptr, ptr %120, align 8, !tbaa !53
  %122 = getelementptr inbounds nuw %struct.Map_ManStruct_t_, ptr %121, i32 0, i32 30
  %123 = load ptr, ptr %122, align 8, !tbaa !54
  %124 = getelementptr inbounds nuw %struct.Map_SuperLibStruct_t_, ptr %123, i32 0, i32 14
  %125 = load float, ptr %124, align 4, !tbaa !55
  %126 = load float, ptr %12, align 4, !tbaa !12
  %127 = fadd float %126, %125
  store float %127, ptr %12, align 4, !tbaa !12
  br label %128

128:                                              ; preds = %118, %110, %101
  %129 = load ptr, ptr %10, align 8, !tbaa !3
  %130 = getelementptr inbounds nuw %struct.Map_NodeStruct_t_, ptr %129, i32 0, i32 6
  %131 = getelementptr inbounds [3 x i32], ptr %130, i64 0, i64 2
  %132 = load i32, ptr %131, align 8, !tbaa !8
  %133 = add nsw i32 %132, 1
  store i32 %133, ptr %131, align 8, !tbaa !8
  %134 = icmp sgt i32 %132, 0
  br i1 %134, label %135, label %136

135:                                              ; preds = %128
  br label %231

136:                                              ; preds = %128
  br label %137

137:                                              ; preds = %136, %100
  br label %203

138:                                              ; preds = %60
  %139 = load ptr, ptr %10, align 8, !tbaa !3
  %140 = getelementptr inbounds nuw %struct.Map_NodeStruct_t_, ptr %139, i32 0, i32 15
  %141 = getelementptr inbounds [2 x ptr], ptr %140, i64 0, i64 0
  %142 = load ptr, ptr %141, align 8, !tbaa !10
  %143 = icmp ne ptr %142, null
  br i1 %143, label %144, label %166

144:                                              ; preds = %138
  %145 = load ptr, ptr %10, align 8, !tbaa !3
  %146 = getelementptr inbounds nuw %struct.Map_NodeStruct_t_, ptr %145, i32 0, i32 15
  %147 = getelementptr inbounds [2 x ptr], ptr %146, i64 0, i64 1
  %148 = load ptr, ptr %147, align 8, !tbaa !10
  %149 = icmp ne ptr %148, null
  br i1 %149, label %150, label %166

150:                                              ; preds = %144
  %151 = load ptr, ptr %10, align 8, !tbaa !3
  %152 = getelementptr inbounds nuw %struct.Map_NodeStruct_t_, ptr %151, i32 0, i32 6
  %153 = getelementptr inbounds [3 x i32], ptr %152, i64 0, i64 2
  %154 = load i32, ptr %153, align 8, !tbaa !8
  %155 = add nsw i32 %154, -1
  store i32 %155, ptr %153, align 8, !tbaa !8
  %156 = load ptr, ptr %10, align 8, !tbaa !3
  %157 = getelementptr inbounds nuw %struct.Map_NodeStruct_t_, ptr %156, i32 0, i32 6
  %158 = load i32, ptr %14, align 4, !tbaa !8
  %159 = sext i32 %158 to i64
  %160 = getelementptr inbounds [3 x i32], ptr %157, i64 0, i64 %159
  %161 = load i32, ptr %160, align 4, !tbaa !8
  %162 = add nsw i32 %161, -1
  store i32 %162, ptr %160, align 4, !tbaa !8
  %163 = icmp sgt i32 %162, 0
  br i1 %163, label %164, label %165

164:                                              ; preds = %150
  br label %231

165:                                              ; preds = %150
  br label %202

166:                                              ; preds = %144, %138
  %167 = load ptr, ptr %10, align 8, !tbaa !3
  %168 = getelementptr inbounds nuw %struct.Map_NodeStruct_t_, ptr %167, i32 0, i32 6
  %169 = load i32, ptr %14, align 4, !tbaa !8
  %170 = sext i32 %169 to i64
  %171 = getelementptr inbounds [3 x i32], ptr %168, i64 0, i64 %170
  %172 = load i32, ptr %171, align 4, !tbaa !8
  %173 = add nsw i32 %172, -1
  store i32 %173, ptr %171, align 4, !tbaa !8
  %174 = icmp eq i32 %173, 0
  br i1 %174, label %175, label %193

175:                                              ; preds = %166
  %176 = load ptr, ptr %10, align 8, !tbaa !3
  %177 = getelementptr inbounds nuw %struct.Map_NodeStruct_t_, ptr %176, i32 0, i32 15
  %178 = load i32, ptr %14, align 4, !tbaa !8
  %179 = sext i32 %178 to i64
  %180 = getelementptr inbounds [2 x ptr], ptr %177, i64 0, i64 %179
  %181 = load ptr, ptr %180, align 8, !tbaa !10
  %182 = icmp eq ptr %181, null
  br i1 %182, label %183, label %193

183:                                              ; preds = %175
  %184 = load ptr, ptr %10, align 8, !tbaa !3
  %185 = getelementptr inbounds nuw %struct.Map_NodeStruct_t_, ptr %184, i32 0, i32 0
  %186 = load ptr, ptr %185, align 8, !tbaa !53
  %187 = getelementptr inbounds nuw %struct.Map_ManStruct_t_, ptr %186, i32 0, i32 30
  %188 = load ptr, ptr %187, align 8, !tbaa !54
  %189 = getelementptr inbounds nuw %struct.Map_SuperLibStruct_t_, ptr %188, i32 0, i32 14
  %190 = load float, ptr %189, align 4, !tbaa !55
  %191 = load float, ptr %12, align 4, !tbaa !12
  %192 = fadd float %191, %190
  store float %192, ptr %12, align 4, !tbaa !12
  br label %193

193:                                              ; preds = %183, %175, %166
  %194 = load ptr, ptr %10, align 8, !tbaa !3
  %195 = getelementptr inbounds nuw %struct.Map_NodeStruct_t_, ptr %194, i32 0, i32 6
  %196 = getelementptr inbounds [3 x i32], ptr %195, i64 0, i64 2
  %197 = load i32, ptr %196, align 8, !tbaa !8
  %198 = add nsw i32 %197, -1
  store i32 %198, ptr %196, align 8, !tbaa !8
  %199 = icmp sgt i32 %198, 0
  br i1 %199, label %200, label %201

200:                                              ; preds = %193
  br label %231

201:                                              ; preds = %193
  br label %202

202:                                              ; preds = %201, %165
  br label %203

203:                                              ; preds = %202, %137
  %204 = load ptr, ptr %10, align 8, !tbaa !3
  %205 = getelementptr inbounds nuw %struct.Map_NodeStruct_t_, ptr %204, i32 0, i32 15
  %206 = load i32, ptr %14, align 4, !tbaa !8
  %207 = sext i32 %206 to i64
  %208 = getelementptr inbounds [2 x ptr], ptr %205, i64 0, i64 %207
  %209 = load ptr, ptr %208, align 8, !tbaa !10
  store ptr %209, ptr %11, align 8, !tbaa !10
  %210 = load ptr, ptr %11, align 8, !tbaa !10
  %211 = icmp eq ptr %210, null
  br i1 %211, label %212, label %223

212:                                              ; preds = %203
  %213 = load i32, ptr %14, align 4, !tbaa !8
  %214 = icmp ne i32 %213, 0
  %215 = xor i1 %214, true
  %216 = zext i1 %215 to i32
  store i32 %216, ptr %14, align 4, !tbaa !8
  %217 = load ptr, ptr %10, align 8, !tbaa !3
  %218 = getelementptr inbounds nuw %struct.Map_NodeStruct_t_, ptr %217, i32 0, i32 15
  %219 = load i32, ptr %14, align 4, !tbaa !8
  %220 = sext i32 %219 to i64
  %221 = getelementptr inbounds [2 x ptr], ptr %218, i64 0, i64 %220
  %222 = load ptr, ptr %221, align 8, !tbaa !10
  store ptr %222, ptr %11, align 8, !tbaa !10
  br label %223

223:                                              ; preds = %212, %203
  %224 = load ptr, ptr %11, align 8, !tbaa !10
  %225 = load i32, ptr %14, align 4, !tbaa !8
  %226 = load i32, ptr %8, align 4, !tbaa !8
  %227 = load i32, ptr %9, align 4, !tbaa !8
  %228 = call float @Map_CutRefDeref(ptr noundef %224, i32 noundef %225, i32 noundef %226, i32 noundef %227)
  %229 = load float, ptr %12, align 4, !tbaa !12
  %230 = fadd float %229, %228
  store float %230, ptr %12, align 4, !tbaa !12
  br label %231

231:                                              ; preds = %223, %200, %164, %135, %99
  %232 = load i32, ptr %13, align 4, !tbaa !8
  %233 = add nsw i32 %232, 1
  store i32 %233, ptr %13, align 4, !tbaa !8
  br label %53, !llvm.loop !61

234:                                              ; preds = %53
  %235 = load float, ptr %12, align 4, !tbaa !12
  store float %235, ptr %5, align 4
  store i32 1, ptr %15, align 4
  br label %236

236:                                              ; preds = %234, %21
  call void @llvm.lifetime.end.p0(i64 4, ptr %14) #4
  call void @llvm.lifetime.end.p0(i64 4, ptr %13) #4
  call void @llvm.lifetime.end.p0(i64 4, ptr %12) #4
  call void @llvm.lifetime.end.p0(i64 8, ptr %11) #4
  call void @llvm.lifetime.end.p0(i64 8, ptr %10) #4
  %237 = load float, ptr %5, align 4
  ret float %237
}