; Function Attrs: nounwind uwtable
define float @Map_CutRefDeref(ptr noundef %0, i32 noundef %1, i32 noundef %2, i32 noundef %3) local_unnamed_addr #5 {
  %5 = getelementptr inbounds nuw i8, ptr %0, i64 76
  %6 = load i8, ptr %5, align 4, !tbaa !44
  %7 = icmp eq i8 %6, 1
  br i1 %7, label %.loopexit, label %8

8:                                                ; preds = %4
  %9 = tail call float @Map_CutGetRootArea(ptr noundef nonnull %0, i32 noundef %1) #7
  %.not = icmp eq i32 %3, 0
  br i1 %.not, label %18, label %10

10:                                               ; preds = %8
  %.not59 = icmp eq i32 %2, 0
  %11 = sext i32 %1 to i64
  %.idx = mul nsw i64 %11, 40
  %12 = getelementptr i8, ptr %0, i64 96
  %13 = getelementptr i8, ptr %12, i64 %.idx
  %14 = load ptr, ptr %13, align 8, !tbaa !36
  %15 = getelementptr inbounds nuw i8, ptr %14, i64 64
  %16 = load ptr, ptr %15, align 8, !tbaa !48
  br i1 %.not59, label %.thread, label %17

17:                                               ; preds = %10
  tail call void @Mio_GateIncProfile2(ptr noundef %16) #7
  br label %18

18:                                               ; preds = %17, %8
  %19 = load i8, ptr %5, align 4, !tbaa !44
  %20 = icmp sgt i8 %19, 0
  br i1 %20, label %.lr.ph, label %.loopexit

.thread:                                          ; preds = %10
  tail call void @Mio_GateDecProfile2(ptr noundef %16) #7
  %21 = load i8, ptr %5, align 4, !tbaa !44
  %22 = icmp sgt i8 %21, 0
  br i1 %22, label %.lr.ph.split.us.preheader, label %.loopexit

.lr.ph:                                           ; preds = %18
  %23 = getelementptr inbounds nuw i8, ptr %0, i64 24
  %.not61 = icmp eq i32 %2, 0
  br i1 %.not61, label %.lr.ph.split.us.preheader, label %.lr.ph.split

.lr.ph.split.us.preheader:                        ; preds = %.thread, %.lr.ph
  %24 = getelementptr inbounds nuw i8, ptr %0, i64 24
  br label %.lr.ph.split.us

.lr.ph.split.us:                                  ; preds = %.lr.ph.split.us.preheader, %79
  %indvars.iv71 = phi i64 [ %indvars.iv.next72, %79 ], [ 0, %.lr.ph.split.us.preheader ]
  %.05567.us = phi float [ %.1.us, %79 ], [ %9, %.lr.ph.split.us.preheader ]
  %25 = getelementptr inbounds nuw [6 x ptr], ptr %24, i64 0, i64 %indvars.iv71
  %26 = load ptr, ptr %25, align 8, !tbaa !29
  %27 = trunc nuw nsw i64 %indvars.iv71 to i32
  %28 = tail call i32 @Map_CutGetLeafPhase(ptr noundef nonnull %0, i32 noundef %1, i32 noundef %27) #7
  %29 = getelementptr inbounds nuw i8, ptr %26, i64 144
  %30 = load ptr, ptr %29, align 8, !tbaa !3
  %.not62.us = icmp eq ptr %30, null
  br i1 %.not62.us, label %44, label %31

31:                                               ; preds = %.lr.ph.split.us
  %32 = getelementptr inbounds nuw i8, ptr %26, i64 152
  %33 = load ptr, ptr %32, align 8, !tbaa !3
  %.not63.us = icmp eq ptr %33, null
  br i1 %.not63.us, label %44, label %34

34:                                               ; preds = %31
  %35 = getelementptr inbounds nuw i8, ptr %26, i64 32
  %36 = getelementptr inbounds nuw i8, ptr %26, i64 40
  %37 = load i32, ptr %36, align 8, !tbaa !8
  %38 = add nsw i32 %37, -1
  store i32 %38, ptr %36, align 8, !tbaa !8
  %39 = sext i32 %28 to i64
  %40 = getelementptr inbounds [3 x i32], ptr %35, i64 0, i64 %39
  %41 = load i32, ptr %40, align 4, !tbaa !8
  %42 = add nsw i32 %41, -1
  store i32 %42, ptr %40, align 4, !tbaa !8
  %43 = icmp sgt i32 %41, 1
  br i1 %43, label %79, label %67

44:                                               ; preds = %31, %.lr.ph.split.us
  %45 = getelementptr inbounds nuw i8, ptr %26, i64 32
  %46 = sext i32 %28 to i64
  %47 = getelementptr inbounds [3 x i32], ptr %45, i64 0, i64 %46
  %48 = load i32, ptr %47, align 4, !tbaa !8
  %49 = add nsw i32 %48, -1
  store i32 %49, ptr %47, align 4, !tbaa !8
  %50 = icmp eq i32 %49, 0
  br i1 %50, label %51, label %62

51:                                               ; preds = %44
  %52 = getelementptr inbounds [2 x ptr], ptr %29, i64 0, i64 %46
  %53 = load ptr, ptr %52, align 8, !tbaa !3
  %54 = icmp eq ptr %53, null
  br i1 %54, label %55, label %62

55:                                               ; preds = %51
  %56 = load ptr, ptr %26, align 8, !tbaa !49
  %57 = getelementptr inbounds nuw i8, ptr %56, i64 176
  %58 = load ptr, ptr %57, align 8, !tbaa !50
  %59 = getelementptr inbounds nuw i8, ptr %58, i64 140
  %60 = load float, ptr %59, align 4, !tbaa !51
  %61 = fadd float %.05567.us, %60
  br label %62

62:                                               ; preds = %55, %51, %44
  %.4.us = phi float [ %61, %55 ], [ %.05567.us, %51 ], [ %.05567.us, %44 ]
  %63 = getelementptr inbounds nuw i8, ptr %26, i64 40
  %64 = load i32, ptr %63, align 8, !tbaa !8
  %65 = add nsw i32 %64, -1
  store i32 %65, ptr %63, align 8, !tbaa !8
  %66 = icmp sgt i32 %64, 1
  br i1 %66, label %79, label %67

67:                                               ; preds = %62, %34
  %.pre-phi74 = phi i64 [ %46, %62 ], [ %39, %34 ]
  %.3.us = phi float [ %.4.us, %62 ], [ %.05567.us, %34 ]
  %68 = getelementptr inbounds [2 x ptr], ptr %29, i64 0, i64 %.pre-phi74
  %69 = load ptr, ptr %68, align 8, !tbaa !3
  %70 = icmp eq ptr %69, null
  br i1 %70, label %71, label %76

71:                                               ; preds = %67
  %.not66.us = icmp eq i32 %28, 0
  %72 = zext i1 %.not66.us to i32
  %73 = zext i1 %.not66.us to i64
  %74 = getelementptr inbounds nuw [2 x ptr], ptr %29, i64 0, i64 %73
  %75 = load ptr, ptr %74, align 8, !tbaa !3
  br label %76

76:                                               ; preds = %71, %67
  %.056.us = phi ptr [ %75, %71 ], [ %69, %67 ]
  %.0.us = phi i32 [ %72, %71 ], [ %28, %67 ]
  %77 = tail call float @Map_CutRefDeref(ptr noundef %.056.us, i32 noundef %.0.us, i32 noundef 0, i32 noundef %3)
  %78 = fadd float %.3.us, %77
  br label %79

79:                                               ; preds = %76, %62, %34
  %.1.us = phi float [ %78, %76 ], [ %.05567.us, %34 ], [ %.4.us, %62 ]
  %indvars.iv.next72 = add nuw nsw i64 %indvars.iv71, 1
  %80 = load i8, ptr %5, align 4, !tbaa !44
  %81 = sext i8 %80 to i64
  %82 = icmp slt i64 %indvars.iv.next72, %81
  br i1 %82, label %.lr.ph.split.us, label %.loopexit, !llvm.loop !57

.lr.ph.split:                                     ; preds = %.lr.ph, %137
  %indvars.iv = phi i64 [ %indvars.iv.next, %137 ], [ 0, %.lr.ph ]
  %.05567 = phi float [ %.1, %137 ], [ %9, %.lr.ph ]
  %83 = getelementptr inbounds nuw [6 x ptr], ptr %23, i64 0, i64 %indvars.iv
  %84 = load ptr, ptr %83, align 8, !tbaa !29
  %85 = trunc nuw nsw i64 %indvars.iv to i32
  %86 = tail call i32 @Map_CutGetLeafPhase(ptr noundef nonnull %0, i32 noundef %1, i32 noundef %85) #7
  %87 = getelementptr inbounds nuw i8, ptr %84, i64 144
  %88 = load ptr, ptr %87, align 8, !tbaa !3
  %.not64 = icmp eq ptr %88, null
  br i1 %.not64, label %102, label %89

89:                                               ; preds = %.lr.ph.split
  %90 = getelementptr inbounds nuw i8, ptr %84, i64 152
  %91 = load ptr, ptr %90, align 8, !tbaa !3
  %.not65 = icmp eq ptr %91, null
  br i1 %.not65, label %102, label %92

92:                                               ; preds = %89
  %93 = getelementptr inbounds nuw i8, ptr %84, i64 32
  %94 = getelementptr inbounds nuw i8, ptr %84, i64 40
  %95 = load i32, ptr %94, align 8, !tbaa !8
  %96 = add nsw i32 %95, 1
  store i32 %96, ptr %94, align 8, !tbaa !8
  %97 = sext i32 %86 to i64
  %98 = getelementptr inbounds [3 x i32], ptr %93, i64 0, i64 %97
  %99 = load i32, ptr %98, align 4, !tbaa !8
  %100 = add nsw i32 %99, 1
  store i32 %100, ptr %98, align 4, !tbaa !8
  %101 = icmp sgt i32 %99, 0
  br i1 %101, label %137, label %125

102:                                              ; preds = %89, %.lr.ph.split
  %103 = getelementptr inbounds nuw i8, ptr %84, i64 32
  %104 = sext i32 %86 to i64
  %105 = getelementptr inbounds [3 x i32], ptr %103, i64 0, i64 %104
  %106 = load i32, ptr %105, align 4, !tbaa !8
  %107 = add nsw i32 %106, 1
  store i32 %107, ptr %105, align 4, !tbaa !8
  %108 = icmp eq i32 %106, 0
  br i1 %108, label %109, label %120

109:                                              ; preds = %102
  %110 = getelementptr inbounds [2 x ptr], ptr %87, i64 0, i64 %104
  %111 = load ptr, ptr %110, align 8, !tbaa !3
  %112 = icmp eq ptr %111, null
  br i1 %112, label %113, label %120

113:                                              ; preds = %109
  %114 = load ptr, ptr %84, align 8, !tbaa !49
  %115 = getelementptr inbounds nuw i8, ptr %114, i64 176
  %116 = load ptr, ptr %115, align 8, !tbaa !50
  %117 = getelementptr inbounds nuw i8, ptr %116, i64 140
  %118 = load float, ptr %117, align 4, !tbaa !51
  %119 = fadd float %.05567, %118
  br label %120

120:                                              ; preds = %113, %109, %102
  %.2 = phi float [ %119, %113 ], [ %.05567, %109 ], [ %.05567, %102 ]
  %121 = getelementptr inbounds nuw i8, ptr %84, i64 40
  %122 = load i32, ptr %121, align 8, !tbaa !8
  %123 = add nsw i32 %122, 1
  store i32 %123, ptr %121, align 8, !tbaa !8
  %124 = icmp sgt i32 %122, 0
  br i1 %124, label %137, label %125

125:                                              ; preds = %92, %120
  %.pre-phi = phi i64 [ %97, %92 ], [ %104, %120 ]
  %.3 = phi float [ %.05567, %92 ], [ %.2, %120 ]
  %126 = getelementptr inbounds [2 x ptr], ptr %87, i64 0, i64 %.pre-phi
  %127 = load ptr, ptr %126, align 8, !tbaa !3
  %128 = icmp eq ptr %127, null
  br i1 %128, label %129, label %134

129:                                              ; preds = %125
  %.not66 = icmp eq i32 %86, 0
  %130 = zext i1 %.not66 to i32
  %131 = zext i1 %.not66 to i64
  %132 = getelementptr inbounds nuw [2 x ptr], ptr %87, i64 0, i64 %131
  %133 = load ptr, ptr %132, align 8, !tbaa !3
  br label %134

134:                                              ; preds = %129, %125
  %.056 = phi ptr [ %133, %129 ], [ %127, %125 ]
  %.0 = phi i32 [ %130, %129 ], [ %86, %125 ]
  %135 = tail call float @Map_CutRefDeref(ptr noundef %.056, i32 noundef %.0, i32 noundef %2, i32 noundef %3)
  %136 = fadd float %.3, %135
  br label %137

137:                                              ; preds = %120, %92, %134
  %.1 = phi float [ %.05567, %92 ], [ %136, %134 ], [ %.2, %120 ]
  %indvars.iv.next = add nuw nsw i64 %indvars.iv, 1
  %138 = load i8, ptr %5, align 4, !tbaa !44
  %139 = sext i8 %138 to i64
  %140 = icmp slt i64 %indvars.iv.next, %139
  br i1 %140, label %.lr.ph.split, label %.loopexit, !llvm.loop !57

.loopexit:                                        ; preds = %137, %79, %.thread, %18, %4
  %.057 = phi float [ 0.000000e+00, %4 ], [ %9, %18 ], [ %9, %.thread ], [ %.1.us, %79 ], [ %.1, %137 ]
  ret float %.057
}